; ModuleID = '49/13.c'
source_filename = "49/13.c"
target datalayout = "e-m:e-p270:32:32-p271:32:32-p272:64:64-i64:64-f80:128-n8:16:32:64-S128"
target triple = "x86_64-pc-linux-gnu"

@.str = private unnamed_addr constant [3 x i8] c"%c\00", align 1
@.str.1 = private unnamed_addr constant [2 x i8] c"\0A\00", align 1

; Function Attrs: noinline nounwind uwtable
define dso_local void @main() #0 {
  %1 = alloca [1000 x i8], align 16
  %2 = alloca i32, align 4
  %3 = alloca i32, align 4
  %4 = alloca i32, align 4
  %5 = alloca i32, align 4
  %6 = alloca i32, align 4
  %7 = alloca i32, align 4
  store i32 0, i32* %7, align 4
  %8 = getelementptr inbounds [1000 x i8], [1000 x i8]* %1, i64 0, i64 0
  %9 = call i32 (i8*, ...) bitcast (i32 (...)* @gets to i32 (i8*, ...)*)(i8* %8)
  %10 = getelementptr inbounds [1000 x i8], [1000 x i8]* %1, i64 0, i64 0
  %11 = call i64 @strlen(i8* %10) #3
  %12 = trunc i64 %11 to i32
  store i32 %12, i32* %2, align 4
  store i32 2, i32* %5, align 4
  br label %13

13:                                               ; preds = %103, %0
  %14 = load i32, i32* %5, align 4
  %15 = load i32, i32* %2, align 4
  %16 = icmp sle i32 %14, %15
  br i1 %16, label %17, label %106

17:                                               ; preds = %13
  store i32 0, i32* %3, align 4
  br label %18

18:                                               ; preds = %99, %17
  %19 = load i32, i32* %3, align 4
  %20 = load i32, i32* %2, align 4
  %21 = icmp slt i32 %19, %20
  br i1 %21, label %22, label %102

22:                                               ; preds = %18
  store i32 0, i32* %4, align 4
  br label %23

23:                                               ; preds = %95, %22
  %24 = load i32, i32* %4, align 4
  %25 = load i32, i32* %5, align 4
  %26 = sdiv i32 %25, 2
  %27 = icmp slt i32 %24, %26
  br i1 %27, label %28, label %98

28:                                               ; preds = %23
  %29 = load i32, i32* %3, align 4
  %30 = load i32, i32* %4, align 4
  %31 = add nsw i32 %29, %30
  %32 = sext i32 %31 to i64
  %33 = getelementptr inbounds [1000 x i8], [1000 x i8]* %1, i64 0, i64 %32
  %34 = load i8, i8* %33, align 1
  %35 = sext i8 %34 to i32
  %36 = load i32, i32* %3, align 4
  %37 = load i32, i32* %5, align 4
  %38 = add nsw i32 %36, %37
  %39 = load i32, i32* %4, align 4
  %40 = sub nsw i32 %38, %39
  %41 = sub nsw i32 %40, 1
  %42 = sext i32 %41 to i64
  %43 = getelementptr inbounds [1000 x i8], [1000 x i8]* %1, i64 0, i64 %42
  %44 = load i8, i8* %43, align 1
  %45 = sext i8 %44 to i32
  %46 = icmp eq i32 %35, %45
  br i1 %46, label %47, label %50

47:                                               ; preds = %28
  %48 = load i32, i32* %7, align 4
  %49 = add nsw i32 %48, 1
  store i32 %49, i32* %7, align 4
  br label %50

50:                                               ; preds = %47, %28
  %51 = load i32, i32* %4, align 4
  %52 = load i32, i32* %5, align 4
  %53 = sdiv i32 %52, 2
  %54 = sub nsw i32 %53, 1
  %55 = icmp eq i32 %51, %54
  br i1 %55, label %56, label %81

56:                                               ; preds = %50
  %57 = load i32, i32* %7, align 4
  %58 = load i32, i32* %5, align 4
  %59 = sdiv i32 %58, 2
  %60 = icmp eq i32 %57, %59
  br i1 %60, label %61, label %81

61:                                               ; preds = %56
  %62 = load i32, i32* %3, align 4
  store i32 %62, i32* %6, align 4
  br label %63

63:                                               ; preds = %76, %61
  %64 = load i32, i32* %6, align 4
  %65 = load i32, i32* %3, align 4
  %66 = load i32, i32* %5, align 4
  %67 = add nsw i32 %65, %66
  %68 = icmp slt i32 %64, %67
  br i1 %68, label %69, label %79

69:                                               ; preds = %63
  %70 = load i32, i32* %6, align 4
  %71 = sext i32 %70 to i64
  %72 = getelementptr inbounds [1000 x i8], [1000 x i8]* %1, i64 0, i64 %71
  %73 = load i8, i8* %72, align 1
  %74 = sext i8 %73 to i32
  %75 = call i32 (i8*, ...) @printf(i8* getelementptr inbounds ([3 x i8], [3 x i8]* @.str, i64 0, i64 0), i32 %74)
  br label %76

76:                                               ; preds = %69
  %77 = load i32, i32* %6, align 4
  %78 = add nsw i32 %77, 1
  store i32 %78, i32* %6, align 4
  br label %63

79:                                               ; preds = %63
  %80 = call i32 (i8*, ...) @printf(i8* getelementptr inbounds ([2 x i8], [2 x i8]* @.str.1, i64 0, i64 0))
  store i32 0, i32* %7, align 4
  br label %94

81:                                               ; preds = %56, %50
  %82 = load i32, i32* %4, align 4
  %83 = load i32, i32* %5, align 4
  %84 = sdiv i32 %83, 2
  %85 = sub nsw i32 %84, 1
  %86 = icmp eq i32 %82, %85
  br i1 %86, label %87, label %93

87:                                               ; preds = %81
  %88 = load i32, i32* %7, align 4
  %89 = load i32, i32* %5, align 4
  %90 = sdiv i32 %89, 2
  %91 = icmp ne i32 %88, %90
  br i1 %91, label %92, label %93

92:                                               ; preds = %87
  store i32 0, i32* %7, align 4
  br label %93

93:                                               ; preds = %92, %87, %81
  br label %94

94:                                               ; preds = %93, %79
  br label %95

95:                                               ; preds = %94
  %96 = load i32, i32* %4, align 4
  %97 = add nsw i32 %96, 1
  store i32 %97, i32* %4, align 4
  br label %23

98:                                               ; preds = %23
  br label %99

99:                                               ; preds = %98
  %100 = load i32, i32* %3, align 4
  %101 = add nsw i32 %100, 1
  store i32 %101, i32* %3, align 4
  br label %18

102:                                              ; preds = %18
  br label %103

103:                                              ; preds = %102
  %104 = load i32, i32* %5, align 4
  %105 = add nsw i32 %104, 2
  store i32 %105, i32* %5, align 4
  br label %13

106:                                              ; preds = %13
  ret void
}

declare dso_local i32 @gets(...) #1

; Function Attrs: nounwind readonly
declare dso_local i64 @strlen(i8*) #2

declare dso_local i32 @printf(i8*, ...) #1


!llvm.module.flags = !{!0}
!llvm.ident = !{!1}

!0 = !{i32 1, !"wchar_size", i32 4}
!1 = !{!"clang version 10.0.0-4ubuntu1 "}
